(dp0
S'model'
p1
S'C597A'
p2
sS'barcode'
p3
(dp4
g2
(dp5
S'LABEL BATT-C597A/J-CA'
p6
S'1AG6P4S2000-ABA'
p7
sS'LABEL BATT-C597A/OTCA-S1P'
p8
S'1AG6P4S2000--BA'
p9
sS'LABEL BATT-C597A/C-CA'
p10
S'1AG6P4S2000-BBA'
p11
sssS'port'
p12
I5
sS'save_desti'
p13
S'LABEL BATT-C597A/OTCA-S1P'
p14
s.